; Function Attrs: mustprogress nounwind uwtable
define internal fastcc void @_ZN6hermes2vmL22llvmStreamableToStringIN4llvh15FormattedNumberEEERNSt7__cxx1112basic_stringIcSt11char_traitsIcESaIcEEERKT_(ptr noundef nonnull align 8 dereferenceable(23) %v) unnamed_addr #0 {
entry:
  %strstrm = alloca %"class.llvh::raw_string_ostream", align 8
  %0 = load atomic i8, ptr @_ZGVZN6hermes2vmL22llvmStreamableToStringIN4llvh15FormattedNumberEEERNSt7__cxx1112basic_stringIcSt11char_traitsIcESaIcEEERKT_E3bufB5cxx11 acquire, align 8
  %guard.uninitialized = icmp eq i8 %0, 0
  br i1 %guard.uninitialized, label %init.check, label %init.end, !prof !380

init.check:                                       ; preds = %entry
  %1 = tail call i32 @__cxa_guard_acquire(ptr nonnull @_ZGVZN6hermes2vmL22llvmStreamableToStringIN4llvh15FormattedNumberEEERNSt7__cxx1112basic_stringIcSt11char_traitsIcESaIcEEERKT_E3bufB5cxx11) #26
  %tobool.not = icmp eq i32 %1, 0
  br i1 %tobool.not, label %init.end, label %init

init:                                             ; preds = %init.check
  tail call void @_ZNSt7__cxx1112basic_stringIcSt11char_traitsIcESaIcEEC1Ev(ptr noundef nonnull align 8 dereferenceable(32) @_ZZN6hermes2vmL22llvmStreamableToStringIN4llvh15FormattedNumberEEERNSt7__cxx1112basic_stringIcSt11char_traitsIcESaIcEEERKT_E3bufB5cxx11) #26
  %2 = tail call i32 @__cxa_atexit(ptr nonnull @_ZNSt7__cxx1112basic_stringIcSt11char_traitsIcESaIcEED1Ev, ptr nonnull @_ZZN6hermes2vmL22llvmStreamableToStringIN4llvh15FormattedNumberEEERNSt7__cxx1112basic_stringIcSt11char_traitsIcESaIcEEERKT_E3bufB5cxx11, ptr nonnull @__dso_handle) #26
  tail call void @__cxa_guard_release(ptr nonnull @_ZGVZN6hermes2vmL22llvmStreamableToStringIN4llvh15FormattedNumberEEERNSt7__cxx1112basic_stringIcSt11char_traitsIcESaIcEEERKT_E3bufB5cxx11) #26
  br label %init.end

init.end:                                         ; preds = %init, %init.check, %entry
  tail call void @_ZNSt7__cxx1112basic_stringIcSt11char_traitsIcESaIcEE5clearEv(ptr noundef nonnull align 8 dereferenceable(32) @_ZZN6hermes2vmL22llvmStreamableToStringIN4llvh15FormattedNumberEEERNSt7__cxx1112basic_stringIcSt11char_traitsIcESaIcEEERKT_E3bufB5cxx11) #26
  %BufferMode.i.i = getelementptr inbounds i8, ptr %strstrm, i64 32
  store i32 1, ptr %BufferMode.i.i, align 8
  %OutBufStart.i.i = getelementptr inbounds i8, ptr %strstrm, i64 8
  call void @llvm.memset.p0.i64(ptr noundef nonnull align 8 dereferenceable(24) %OutBufStart.i.i, i8 0, i64 24, i1 false)
  store ptr getelementptr inbounds ({ [13 x ptr] }, ptr @_ZTVN4llvh18raw_string_ostreamE, i64 0, i32 0, i64 2), ptr %strstrm, align 8
  %OS.i = getelementptr inbounds i8, ptr %strstrm, i64 40
  store ptr @_ZZN6hermes2vmL22llvmStreamableToStringIN4llvh15FormattedNumberEEERNSt7__cxx1112basic_stringIcSt11char_traitsIcESaIcEEERKT_E3bufB5cxx11, ptr %OS.i, align 8
  %call = call noundef nonnull align 8 dereferenceable(36) ptr @_ZN4llvh11raw_ostreamlsERKNS_15FormattedNumberE(ptr noundef nonnull align 8 dereferenceable(36) %strstrm, ptr noundef nonnull align 8 dereferenceable(23) %v) #26
  %OutBufCur.i = getelementptr inbounds i8, ptr %strstrm, i64 24
  %3 = load ptr, ptr %OutBufCur.i, align 8
  %4 = load ptr, ptr %OutBufStart.i.i, align 8
  %cmp.not.i = icmp eq ptr %3, %4
  br i1 %cmp.not.i, label %_ZN4llvh11raw_ostream5flushEv.exit, label %if.then.i

if.then.i:                                        ; preds = %init.end
  call void @_ZN4llvh11raw_ostream14flush_nonemptyEv(ptr noundef nonnull align 8 dereferenceable(36) %strstrm) #26
  br label %_ZN4llvh11raw_ostream5flushEv.exit

_ZN4llvh11raw_ostream5flushEv.exit:               ; preds = %init.end, %if.then.i
  call void @_ZN4llvh18raw_string_ostreamD1Ev(ptr noundef nonnull align 8 dereferenceable(48) %strstrm) #26
  ret void
}